; Function Attrs: nounwind uwtable
define internal void @lv_checkbox_destructor(ptr nocapture readnone %0, ptr nocapture noundef %1) #0 {
  %3 = getelementptr inbounds nuw i8, ptr %1, i64 72
  %4 = load i8, ptr %3, align 8
  %5 = and i8 %4, 1
  %.not = icmp eq i8 %5, 0
  br i1 %.not, label %6, label %9

6:                                                ; preds = %2
  %7 = getelementptr inbounds nuw i8, ptr %1, i64 64
  %8 = load ptr, ptr %7, align 8, !tbaa !3
  tail call void @lv_free(ptr noundef %8) #5
  store ptr null, ptr %7, align 8, !tbaa !3
  br label %9

9:                                                ; preds = %6, %2
  ret void
}